target datalayout = "e-m:e-p270:32:32-p271:32:32-p272:64:64-i64:64-i128:128-f80:128-n8:16:32:64-S128"
target triple = "x86_64-pc-linux-gnu"

%struct.vtx_data = type { i64, ptr, ptr, ptr, ptr }

; Function Attrs: nounwind uwtable
define i64 @common_neighbors(ptr noundef %0, i32 noundef %1, ptr noundef %2) #0 {
  %4 = alloca ptr, align 8
  %5 = alloca i32, align 4
  %6 = alloca ptr, align 8
  %7 = alloca i32, align 4
  %8 = alloca i64, align 8
  %9 = alloca i64, align 8
  store ptr %0, ptr %4, align 8, !tbaa !3
  store i32 %1, ptr %5, align 4, !tbaa !7
  store ptr %2, ptr %6, align 8, !tbaa !9
  call void @llvm.lifetime.start.p0(i64 4, ptr %7) #9
  call void @llvm.lifetime.start.p0(i64 8, ptr %8) #9
  store i64 0, ptr %8, align 8, !tbaa !11
  call void @llvm.lifetime.start.p0(i64 8, ptr %9) #9
  store i64 1, ptr %9, align 8, !tbaa !11
  br label %10

10:                                               ; preds = %40, %3
  %11 = load i64, ptr %9, align 8, !tbaa !11
  %12 = load ptr, ptr %4, align 8, !tbaa !3
  %13 = load i32, ptr %5, align 4, !tbaa !7
  %14 = sext i32 %13 to i64
  %15 = getelementptr inbounds %struct.vtx_data, ptr %12, i64 %14
  %16 = getelementptr inbounds nuw %struct.vtx_data, ptr %15, i32 0, i32 0
  %17 = load i64, ptr %16, align 8, !tbaa !13
  %18 = icmp ult i64 %11, %17
  br i1 %18, label %20, label %19

19:                                               ; preds = %10
  call void @llvm.lifetime.end.p0(i64 8, ptr %9) #9
  br label %43

20:                                               ; preds = %10
  %21 = load ptr, ptr %4, align 8, !tbaa !3
  %22 = load i32, ptr %5, align 4, !tbaa !7
  %23 = sext i32 %22 to i64
  %24 = getelementptr inbounds %struct.vtx_data, ptr %21, i64 %23
  %25 = getelementptr inbounds nuw %struct.vtx_data, ptr %24, i32 0, i32 1
  %26 = load ptr, ptr %25, align 8, !tbaa !16
  %27 = load i64, ptr %9, align 8, !tbaa !11
  %28 = getelementptr inbounds nuw i32, ptr %26, i64 %27
  %29 = load i32, ptr %28, align 4, !tbaa !7
  store i32 %29, ptr %7, align 4, !tbaa !7
  %30 = load ptr, ptr %6, align 8, !tbaa !9
  %31 = load i32, ptr %7, align 4, !tbaa !7
  %32 = sext i32 %31 to i64
  %33 = getelementptr inbounds i32, ptr %30, i64 %32
  %34 = load i32, ptr %33, align 4, !tbaa !7
  %35 = icmp sgt i32 %34, 0
  br i1 %35, label %36, label %39

36:                                               ; preds = %20
  %37 = load i64, ptr %8, align 8, !tbaa !11
  %38 = add i64 %37, 1
  store i64 %38, ptr %8, align 8, !tbaa !11
  br label %39

39:                                               ; preds = %36, %20
  br label %40

40:                                               ; preds = %39
  %41 = load i64, ptr %9, align 8, !tbaa !11
  %42 = add i64 %41, 1
  store i64 %42, ptr %9, align 8, !tbaa !11
  br label %10, !llvm.loop !17

43:                                               ; preds = %19
  %44 = load i64, ptr %8, align 8, !tbaa !11
  call void @llvm.lifetime.end.p0(i64 8, ptr %8) #9
  call void @llvm.lifetime.end.p0(i64 4, ptr %7) #9
  ret i64 %44
}