; Function Attrs: nofree norecurse nosync nounwind memory(read, inaccessiblemem: none) uwtable
define i64 @common_neighbors(ptr noundef readonly captures(none) %0, i32 noundef %1, ptr noundef readonly captures(none) %2) local_unnamed_addr #0 {
  %4 = sext i32 %1 to i64
  %5 = getelementptr inbounds %struct.vtx_data, ptr %0, i64 %4
  %6 = load i64, ptr %5, align 8, !tbaa !3
  %7 = icmp ugt i64 %6, 1
  br i1 %7, label %.lr.ph, label %._crit_edge

.lr.ph:                                           ; preds = %3
  %8 = getelementptr inbounds nuw i8, ptr %5, i64 8
  %9 = load ptr, ptr %8, align 8, !tbaa !11
  br label %10

._crit_edge:                                      ; preds = %10, %3
  %.010.lcssa = phi i64 [ 0, %3 ], [ %spec.select, %10 ]
  ret i64 %.010.lcssa

10:                                               ; preds = %.lr.ph, %10
  %.012 = phi i64 [ 1, %.lr.ph ], [ %18, %10 ]
  %.01011 = phi i64 [ 0, %.lr.ph ], [ %spec.select, %10 ]
  %11 = getelementptr inbounds nuw i32, ptr %9, i64 %.012
  %12 = load i32, ptr %11, align 4, !tbaa !12
  %13 = sext i32 %12 to i64
  %14 = getelementptr inbounds i32, ptr %2, i64 %13
  %15 = load i32, ptr %14, align 4, !tbaa !12
  %16 = icmp sgt i32 %15, 0
  %17 = zext i1 %16 to i64
  %spec.select = add i64 %.01011, %17
  %18 = add nuw i64 %.012, 1
  %exitcond.not = icmp eq i64 %18, %6
  br i1 %exitcond.not, label %._crit_edge, label %10, !llvm.loop !14
}